; Function Attrs: nounwind uwtable
define internal ptr @_socket_socket_inet_aton(ptr readnone captures(none) %0, ptr noundef %1) #0 {
  %3 = alloca %struct.in_addr, align 4
  %4 = alloca i64, align 8
  %5 = getelementptr i8, ptr %1, i64 8
  %.val = load ptr, ptr %5, align 8, !tbaa !39
  %6 = getelementptr i8, ptr %.val, i64 168
  %.val10 = load i64, ptr %6, align 8, !tbaa !40
  %7 = and i64 %.val10, 268435456
  %.not = icmp eq i64 %7, 0
  br i1 %.not, label %8, label %9

8:                                                ; preds = %2
  tail call void @_PyArg_BadArgument(ptr noundef nonnull @.str.16, ptr noundef nonnull @.str.69, ptr noundef nonnull @.str.70, ptr noundef nonnull %1) #13
  br label %23

9:                                                ; preds = %2
  %10 = call ptr @PyUnicode_AsUTF8AndSize(ptr noundef nonnull %1, ptr noundef nonnull %4) #13
  %11 = icmp eq ptr %10, null
  br i1 %11, label %23, label %12

12:                                               ; preds = %9
  %13 = call i64 @strlen(ptr noundef nonnull dereferenceable(1) %10) #15
  %14 = load i64, ptr %4, align 8, !tbaa !47
  %.not9 = icmp eq i64 %13, %14
  br i1 %.not9, label %17, label %15

15:                                               ; preds = %12
  %16 = load ptr, ptr @PyExc_ValueError, align 8, !tbaa !19
  call void @PyErr_SetString(ptr noundef %16, ptr noundef nonnull @.str.71) #13
  br label %23

17:                                               ; preds = %12
  call void @llvm.lifetime.start.p0(i64 4, ptr nonnull %3) #13
  %18 = call i32 @inet_aton(ptr noundef nonnull %10, ptr noundef nonnull %3) #13
  %.not.i = icmp eq i32 %18, 0
  br i1 %.not.i, label %21, label %19

19:                                               ; preds = %17
  %20 = call ptr @PyBytes_FromStringAndSize(ptr noundef nonnull %3, i64 noundef 4) #13
  br label %_socket_socket_inet_aton_impl.exit

21:                                               ; preds = %17
  %22 = load ptr, ptr @PyExc_OSError, align 8, !tbaa !19
  call void @PyErr_SetString(ptr noundef %22, ptr noundef nonnull @.str.72) #13
  br label %_socket_socket_inet_aton_impl.exit

_socket_socket_inet_aton_impl.exit:               ; preds = %19, %21
  %.0.i = phi ptr [ %20, %19 ], [ null, %21 ]
  call void @llvm.lifetime.end.p0(i64 4, ptr nonnull %3) #13
  br label %23

23:                                               ; preds = %9, %_socket_socket_inet_aton_impl.exit, %15, %8
  %.0 = phi ptr [ null, %9 ], [ null, %15 ], [ %.0.i, %_socket_socket_inet_aton_impl.exit ], [ null, %8 ]
  ret ptr %.0
}